target datalayout = "e-m:e-p270:32:32-p271:32:32-p272:64:64-i64:64-i128:128-f80:128-n8:16:32:64-S128"
target triple = "x86_64-pc-linux-gnu"

%struct._object = type { %union.anon, ptr }
%union.anon = type { i64 }
%struct.anon.0 = type { i32, i32 }

@.str.2 = private unnamed_addr constant [16 x i8] c"surrogateescape\00", align 1
@.str.8 = private unnamed_addr constant [6 x i8] c"Error\00", align 1
@.str.9 = private unnamed_addr constant [8 x i8] c"(iOOiO)\00", align 1
@.str.10 = private unnamed_addr constant [6 x i8] c"(iOO)\00", align 1
@.str.11 = private unnamed_addr constant [5 x i8] c"(iO)\00", align 1
@_Py_tss_tstate = external thread_local global ptr, align 8

; Function Attrs: alwaysinline nounwind uwtable
define internal i32 @_Py_IsImmortal(ptr noundef %0) #3 {
  %2 = alloca ptr, align 8
  store ptr %0, ptr %2, align 8, !tbaa !9
  %3 = load ptr, ptr %2, align 8, !tbaa !9
  %4 = getelementptr inbounds nuw %struct._object, ptr %3, i32 0, i32 0
  %5 = getelementptr inbounds nuw %struct.anon.0, ptr %4, i32 0, i32 0
  %6 = load i32, ptr %5, align 8, !tbaa !36
  %7 = icmp slt i32 %6, 0
  %8 = zext i1 %7 to i32
  ret i32 %8
}

; Function Attrs: inlinehint nounwind uwtable
define internal ptr @_Py_TYPE(ptr noundef %0) #2 {
  %2 = alloca ptr, align 8
  store ptr %0, ptr %2, align 8, !tbaa !9
  %3 = load ptr, ptr %2, align 8, !tbaa !9
  %4 = getelementptr inbounds nuw %struct._object, ptr %3, i32 0, i32 1
  %5 = load ptr, ptr %4, align 8, !tbaa !26
  ret ptr %5
}

; Function Attrs: alwaysinline nounwind uwtable
define internal void @Py_DECREF(ptr noundef %0) #3 {
  %2 = alloca ptr, align 8
  store ptr %0, ptr %2, align 8, !tbaa !9
  %3 = load ptr, ptr %2, align 8, !tbaa !9
  %4 = call i32 @_Py_IsImmortal(ptr noundef %3)
  %5 = icmp ne i32 %4, 0
  br i1 %5, label %6, label %7

6:                                                ; preds = %1
  br label %16

7:                                                ; preds = %1
  %8 = load ptr, ptr %2, align 8, !tbaa !9
  %9 = getelementptr inbounds nuw %struct._object, ptr %8, i32 0, i32 0
  %10 = getelementptr inbounds nuw %struct.anon.0, ptr %9, i32 0, i32 0
  %11 = load i32, ptr %10, align 8, !tbaa !36
  %12 = add i32 %11, -1
  store i32 %12, ptr %10, align 8, !tbaa !36
  %13 = icmp eq i32 %12, 0
  br i1 %13, label %14, label %16

14:                                               ; preds = %7
  %15 = load ptr, ptr %2, align 8, !tbaa !9
  call void @_Py_Dealloc(ptr noundef %15)
  br label %16

16:                                               ; preds = %6, %14, %7
  ret void
}

; Function Attrs: inlinehint nounwind uwtable
define internal ptr @_PyThreadState_GET() #2 {
  %1 = call align 8 ptr @llvm.threadlocal.address.p0(ptr align 8 @_Py_tss_tstate)
  %2 = load ptr, ptr %1, align 8, !tbaa !4
  ret ptr %2
}

; Function Attrs: nounwind uwtable
define dso_local ptr @PyErr_SetFromErrnoWithFilenameObjects(ptr noundef %0, ptr noundef %1, ptr noundef %2) #0 {
  %4 = alloca ptr, align 8
  %5 = alloca ptr, align 8
  %6 = alloca ptr, align 8
  %7 = alloca ptr, align 8
  %8 = alloca ptr, align 8
  %9 = alloca ptr, align 8
  %10 = alloca ptr, align 8
  %11 = alloca ptr, align 8
  %12 = alloca i32, align 4
  %13 = alloca i32, align 4
  %14 = alloca ptr, align 8
  store ptr %0, ptr %5, align 8, !tbaa !9
  store ptr %1, ptr %6, align 8, !tbaa !9
  store ptr %2, ptr %7, align 8, !tbaa !9
  call void @llvm.lifetime.start.p0(i64 8, ptr %8) #13
  %15 = call ptr @_PyThreadState_GET()
  store ptr %15, ptr %8, align 8, !tbaa !4
  call void @llvm.lifetime.start.p0(i64 8, ptr %9) #13
  call void @llvm.lifetime.start.p0(i64 8, ptr %10) #13
  call void @llvm.lifetime.start.p0(i64 8, ptr %11) #13
  call void @llvm.lifetime.start.p0(i64 4, ptr %12) #13
  %16 = call ptr @__errno_location() #15
  %17 = load i32, ptr %16, align 4, !tbaa !45
  store i32 %17, ptr %12, align 4, !tbaa !45
  %18 = load i32, ptr %12, align 4, !tbaa !45
  %19 = icmp eq i32 %18, 4
  br i1 %19, label %20, label %24

20:                                               ; preds = %3
  %21 = call i32 @PyErr_CheckSignals()
  %22 = icmp ne i32 %21, 0
  br i1 %22, label %23, label %24

23:                                               ; preds = %20
  store ptr null, ptr %4, align 8
  store i32 1, ptr %13, align 4
  br label %79

24:                                               ; preds = %20, %3
  %25 = load i32, ptr %12, align 4, !tbaa !45
  %26 = icmp ne i32 %25, 0
  br i1 %26, label %27, label %32

27:                                               ; preds = %24
  call void @llvm.lifetime.start.p0(i64 8, ptr %14) #13
  %28 = load i32, ptr %12, align 4, !tbaa !45
  %29 = call ptr @strerror(i32 noundef %28) #13
  store ptr %29, ptr %14, align 8, !tbaa !38
  %30 = load ptr, ptr %14, align 8, !tbaa !38
  %31 = call ptr @PyUnicode_DecodeLocale(ptr noundef %30, ptr noundef @.str.2)
  store ptr %31, ptr %9, align 8, !tbaa !9
  call void @llvm.lifetime.end.p0(i64 8, ptr %14) #13
  br label %34

32:                                               ; preds = %24
  %33 = call ptr @PyUnicode_FromString(ptr noundef @.str.8)
  store ptr %33, ptr %9, align 8, !tbaa !9
  br label %34

34:                                               ; preds = %32, %27
  %35 = load ptr, ptr %9, align 8, !tbaa !9
  %36 = icmp eq ptr %35, null
  br i1 %36, label %37, label %38

37:                                               ; preds = %34
  store ptr null, ptr %4, align 8
  store i32 1, ptr %13, align 4
  br label %79

38:                                               ; preds = %34
  %39 = load ptr, ptr %6, align 8, !tbaa !9
  %40 = icmp ne ptr %39, null
  br i1 %40, label %41, label %56

41:                                               ; preds = %38
  %42 = load ptr, ptr %7, align 8, !tbaa !9
  %43 = icmp ne ptr %42, null
  br i1 %43, label %44, label %50

44:                                               ; preds = %41
  %45 = load i32, ptr %12, align 4, !tbaa !45
  %46 = load ptr, ptr %9, align 8, !tbaa !9
  %47 = load ptr, ptr %6, align 8, !tbaa !9
  %48 = load ptr, ptr %7, align 8, !tbaa !9
  %49 = call ptr (ptr, ...) @Py_BuildValue(ptr noundef @.str.9, i32 noundef %45, ptr noundef %46, ptr noundef %47, i32 noundef 0, ptr noundef %48)
  store ptr %49, ptr %11, align 8, !tbaa !9
  br label %55

50:                                               ; preds = %41
  %51 = load i32, ptr %12, align 4, !tbaa !45
  %52 = load ptr, ptr %9, align 8, !tbaa !9
  %53 = load ptr, ptr %6, align 8, !tbaa !9
  %54 = call ptr (ptr, ...) @Py_BuildValue(ptr noundef @.str.10, i32 noundef %51, ptr noundef %52, ptr noundef %53)
  store ptr %54, ptr %11, align 8, !tbaa !9
  br label %55

55:                                               ; preds = %50, %44
  br label %60

56:                                               ; preds = %38
  %57 = load i32, ptr %12, align 4, !tbaa !45
  %58 = load ptr, ptr %9, align 8, !tbaa !9
  %59 = call ptr (ptr, ...) @Py_BuildValue(ptr noundef @.str.11, i32 noundef %57, ptr noundef %58)
  store ptr %59, ptr %11, align 8, !tbaa !9
  br label %60

60:                                               ; preds = %56, %55
  %61 = load ptr, ptr %9, align 8, !tbaa !9
  call void @Py_DECREF(ptr noundef %61)
  %62 = load ptr, ptr %11, align 8, !tbaa !9
  %63 = icmp ne ptr %62, null
  br i1 %63, label %64, label %78

64:                                               ; preds = %60
  %65 = load ptr, ptr %5, align 8, !tbaa !9
  %66 = load ptr, ptr %11, align 8, !tbaa !9
  %67 = call ptr @PyObject_Call(ptr noundef %65, ptr noundef %66, ptr noundef null)
  store ptr %67, ptr %10, align 8, !tbaa !9
  %68 = load ptr, ptr %11, align 8, !tbaa !9
  call void @Py_DECREF(ptr noundef %68)
  %69 = load ptr, ptr %10, align 8, !tbaa !9
  %70 = icmp ne ptr %69, null
  br i1 %70, label %71, label %77

71:                                               ; preds = %64
  %72 = load ptr, ptr %8, align 8, !tbaa !4
  %73 = load ptr, ptr %10, align 8, !tbaa !9
  %74 = call ptr @_Py_TYPE(ptr noundef %73)
  %75 = load ptr, ptr %10, align 8, !tbaa !9
  call void @_PyErr_SetObject(ptr noundef %72, ptr noundef %74, ptr noundef %75)
  %76 = load ptr, ptr %10, align 8, !tbaa !9
  call void @Py_DECREF(ptr noundef %76)
  br label %77

77:                                               ; preds = %71, %64
  br label %78

78:                                               ; preds = %77, %60
  store ptr null, ptr %4, align 8
  store i32 1, ptr %13, align 4
  br label %79

79:                                               ; preds = %78, %37, %23
  call void @llvm.lifetime.end.p0(i64 4, ptr %12) #13
  call void @llvm.lifetime.end.p0(i64 8, ptr %11) #13
  call void @llvm.lifetime.end.p0(i64 8, ptr %10) #13
  call void @llvm.lifetime.end.p0(i64 8, ptr %9) #13
  call void @llvm.lifetime.end.p0(i64 8, ptr %8) #13
  %80 = load ptr, ptr %4, align 8
  ret ptr %80
}