; Function Attrs: nounwind uwtable
define dso_local noalias noundef ptr @PyErr_SetFromErrnoWithFilenameObjects(ptr noundef %0, ptr noundef %1, ptr noundef %2) local_unnamed_addr #0 {
  %4 = tail call align 8 ptr @llvm.threadlocal.address.p0(ptr align 8 @_Py_tss_tstate)
  %5 = load ptr, ptr %4, align 8, !tbaa !25
  %6 = tail call ptr @__errno_location() #19
  %7 = load i32, ptr %6, align 4, !tbaa !46
  switch i32 %7, label %10 [
    i32 4, label %8
    i32 0, label %13
  ]

8:                                                ; preds = %3
  %9 = tail call i32 @PyErr_CheckSignals() #17
  %.not = icmp eq i32 %9, 0
  br i1 %.not, label %10, label %Py_DECREF.exit

10:                                               ; preds = %8, %3
  %11 = tail call ptr @strerror(i32 noundef %7) #17
  %12 = tail call ptr @PyUnicode_DecodeLocale(ptr noundef %11, ptr noundef nonnull @.str.2) #17
  br label %15

13:                                               ; preds = %3
  %14 = tail call ptr @PyUnicode_FromString(ptr noundef nonnull @.str.8) #17
  br label %15

15:                                               ; preds = %13, %10
  %.026 = phi ptr [ %12, %10 ], [ %14, %13 ]
  %16 = icmp eq ptr %.026, null
  br i1 %16, label %Py_DECREF.exit, label %17

17:                                               ; preds = %15
  %.not32 = icmp eq ptr %1, null
  br i1 %.not32, label %23, label %18

18:                                               ; preds = %17
  %.not33 = icmp eq ptr %2, null
  br i1 %.not33, label %21, label %19

19:                                               ; preds = %18
  %20 = tail call ptr (ptr, ...) @Py_BuildValue(ptr noundef nonnull @.str.9, i32 noundef %7, ptr noundef nonnull %.026, ptr noundef nonnull %1, i32 noundef 0, ptr noundef nonnull %2) #17
  br label %25

21:                                               ; preds = %18
  %22 = tail call ptr (ptr, ...) @Py_BuildValue(ptr noundef nonnull @.str.10, i32 noundef %7, ptr noundef nonnull %.026, ptr noundef nonnull %1) #17
  br label %25

23:                                               ; preds = %17
  %24 = tail call ptr (ptr, ...) @Py_BuildValue(ptr noundef nonnull @.str.11, i32 noundef %7, ptr noundef nonnull %.026) #17
  br label %25

25:                                               ; preds = %19, %21, %23
  %.027 = phi ptr [ %20, %19 ], [ %22, %21 ], [ %24, %23 ]
  %26 = load i32, ptr %.026, align 8, !tbaa !20
  %.not.i38 = icmp sgt i32 %26, -1
  br i1 %.not.i38, label %27, label %Py_DECREF.exit39

27:                                               ; preds = %25
  %28 = add nsw i32 %26, -1
  store i32 %28, ptr %.026, align 8, !tbaa !20
  %29 = icmp eq i32 %28, 0
  br i1 %29, label %30, label %Py_DECREF.exit39

30:                                               ; preds = %27
  tail call void @_Py_Dealloc(ptr noundef nonnull %.026) #17
  br label %Py_DECREF.exit39

Py_DECREF.exit39:                                 ; preds = %25, %27, %30
  %.not34 = icmp eq ptr %.027, null
  br i1 %.not34, label %Py_DECREF.exit, label %31

31:                                               ; preds = %Py_DECREF.exit39
  %32 = tail call ptr @PyObject_Call(ptr noundef %0, ptr noundef nonnull %.027, ptr noundef null) #17
  %33 = load i32, ptr %.027, align 8, !tbaa !20
  %.not.i36 = icmp sgt i32 %33, -1
  br i1 %.not.i36, label %34, label %Py_DECREF.exit37

34:                                               ; preds = %31
  %35 = add nsw i32 %33, -1
  store i32 %35, ptr %.027, align 8, !tbaa !20
  %36 = icmp eq i32 %35, 0
  br i1 %36, label %37, label %Py_DECREF.exit37

37:                                               ; preds = %34
  tail call void @_Py_Dealloc(ptr noundef nonnull %.027) #17
  br label %Py_DECREF.exit37

Py_DECREF.exit37:                                 ; preds = %31, %34, %37
  %.not35 = icmp eq ptr %32, null
  br i1 %.not35, label %Py_DECREF.exit, label %38

38:                                               ; preds = %Py_DECREF.exit37
  %39 = getelementptr i8, ptr %32, i64 8
  %.val = load ptr, ptr %39, align 8, !tbaa !21
  tail call void @_PyErr_SetObject(ptr noundef %5, ptr noundef %.val, ptr noundef nonnull %32)
  %40 = load i32, ptr %32, align 8, !tbaa !20
  %.not.i = icmp sgt i32 %40, -1
  br i1 %.not.i, label %41, label %Py_DECREF.exit

41:                                               ; preds = %38
  %42 = add nsw i32 %40, -1
  store i32 %42, ptr %32, align 8, !tbaa !20
  %43 = icmp eq i32 %42, 0
  br i1 %43, label %44, label %Py_DECREF.exit

44:                                               ; preds = %41
  tail call void @_Py_Dealloc(ptr noundef nonnull %32) #17
  br label %Py_DECREF.exit

Py_DECREF.exit:                                   ; preds = %44, %41, %38, %Py_DECREF.exit39, %Py_DECREF.exit37, %15, %8
  ret ptr null
}